; Function Attrs: nounwind uwtable
define dso_local void @strbuf_init(ptr noundef writeonly captures(none) initializes((0, 24)) %0, i64 noundef %1) local_unnamed_addr #3 {
  tail call void @llvm.memcpy.p0.p0.i64(ptr noundef nonnull align 8 dereferenceable(24) %0, ptr noundef nonnull align 8 dereferenceable(24) @__const.strbuf_addftime.munged_fmt, i64 24, i1 false)
  switch i64 %1, label %4 [
    i64 0, label %strbuf_grow.exit
    i64 -1, label %3
  ]

3:                                                ; preds = %2
  tail call void (ptr, ...) @die(ptr noundef nonnull @.str) #24
  unreachable

4:                                                ; preds = %2
  %5 = getelementptr inbounds nuw i8, ptr %0, i64 16
  store ptr null, ptr %5, align 8, !tbaa !12
  %6 = tail call i64 @llvm.umax.i64(i64 %1, i64 23)
  %..i = add nuw i64 %6, 1
  store i64 %..i, ptr %0, align 8, !tbaa !15
  %7 = getelementptr inbounds nuw i8, ptr %0, i64 16
  %8 = tail call ptr @xrealloc(ptr noundef null, i64 noundef %..i) #25
  store ptr %8, ptr %7, align 8, !tbaa !12
  store i8 0, ptr %8, align 1, !tbaa !4
  br label %strbuf_grow.exit

strbuf_grow.exit:                                 ; preds = %2, %4
  ret void
}